target datalayout = "e-m:e-p270:32:32-p271:32:32-p272:64:64-i64:64-i128:128-f80:128-n8:16:32:64-S128"
target triple = "x86_64-pc-linux-gnu"

%struct.Abc_Ntk_t_ = type { i32, i32, ptr, ptr, ptr, ptr, ptr, ptr, ptr, ptr, ptr, ptr, ptr, [11 x i32], i32, i32, i32, i32, ptr, i32, ptr, ptr, i32, i32, i32, double, i32, %struct.Vec_Int_t_, ptr, ptr, ptr, ptr, ptr, float, i32, ptr, ptr, ptr, ptr, ptr, ptr, ptr, ptr, ptr, ptr, ptr, ptr, ptr, ptr, ptr, ptr, ptr, ptr, ptr, ptr, ptr, ptr }
%struct.Vec_Int_t_ = type { i32, i32, ptr }
%struct.Abc_Obj_t_ = type { ptr, ptr, i32, i32, %struct.Vec_Int_t_, %struct.Vec_Int_t_, %union.anon, %union.anon.0 }
%union.anon = type { ptr }
%union.anon.0 = type { ptr }
%struct.Vec_Ptr_t_ = type { i32, i32, ptr }

; Function Attrs: inlinehint nounwind uwtable
define internal ptr @Vec_PtrEntry(ptr noundef %0, i32 noundef %1) #3 {
  %3 = alloca ptr, align 8
  %4 = alloca i32, align 4
  store ptr %0, ptr %3, align 8, !tbaa !44
  store i32 %1, ptr %4, align 4, !tbaa !8
  %5 = load ptr, ptr %3, align 8, !tbaa !44
  %6 = getelementptr inbounds nuw %struct.Vec_Ptr_t_, ptr %5, i32 0, i32 2
  %7 = load ptr, ptr %6, align 8, !tbaa !61
  %8 = load i32, ptr %4, align 4, !tbaa !8
  %9 = sext i32 %8 to i64
  %10 = getelementptr inbounds ptr, ptr %7, i64 %9
  %11 = load ptr, ptr %10, align 8, !tbaa !60
  ret ptr %11
}

; Function Attrs: inlinehint nounwind uwtable
define internal void @Vec_PtrFree(ptr noundef %0) #3 {
  %2 = alloca ptr, align 8
  store ptr %0, ptr %2, align 8, !tbaa !44
  %3 = load ptr, ptr %2, align 8, !tbaa !44
  %4 = getelementptr inbounds nuw %struct.Vec_Ptr_t_, ptr %3, i32 0, i32 2
  %5 = load ptr, ptr %4, align 8, !tbaa !61
  %6 = icmp ne ptr %5, null
  br i1 %6, label %7, label %13

7:                                                ; preds = %1
  %8 = load ptr, ptr %2, align 8, !tbaa !44
  %9 = getelementptr inbounds nuw %struct.Vec_Ptr_t_, ptr %8, i32 0, i32 2
  %10 = load ptr, ptr %9, align 8, !tbaa !61
  call void @free(ptr noundef %10) #7
  %11 = load ptr, ptr %2, align 8, !tbaa !44
  %12 = getelementptr inbounds nuw %struct.Vec_Ptr_t_, ptr %11, i32 0, i32 2
  store ptr null, ptr %12, align 8, !tbaa !61
  br label %14

13:                                               ; preds = %1
  br label %14

14:                                               ; preds = %13, %7
  %15 = load ptr, ptr %2, align 8, !tbaa !44
  %16 = icmp ne ptr %15, null
  br i1 %16, label %17, label %19

17:                                               ; preds = %14
  %18 = load ptr, ptr %2, align 8, !tbaa !44
  call void @free(ptr noundef %18) #7
  store ptr null, ptr %2, align 8, !tbaa !44
  br label %20

19:                                               ; preds = %14
  br label %20

20:                                               ; preds = %19, %17
  ret void
}

; Function Attrs: nounwind uwtable
define i32 @Abc_NtkMultiLimit(ptr noundef %0, ptr noundef %1, i32 noundef %2) #0 {
  %4 = alloca ptr, align 8
  %5 = alloca ptr, align 8
  %6 = alloca i32, align 4
  store ptr %0, ptr %4, align 8, !tbaa !27
  store ptr %1, ptr %5, align 8, !tbaa !44
  store i32 %2, ptr %6, align 4, !tbaa !8
  %7 = load ptr, ptr %5, align 8, !tbaa !44
  %8 = getelementptr inbounds nuw %struct.Vec_Ptr_t_, ptr %7, i32 0, i32 1
  store i32 0, ptr %8, align 4, !tbaa !58
  %9 = load ptr, ptr %4, align 8, !tbaa !27
  %10 = load ptr, ptr %5, align 8, !tbaa !44
  %11 = load i32, ptr %6, align 4, !tbaa !8
  %12 = call i32 @Abc_NtkMultiLimit_rec(ptr noundef %9, ptr noundef %10, i32 noundef %11, i32 noundef 1, i32 noundef 1)
  ret i32 %12
}

; Function Attrs: inlinehint nounwind uwtable
define internal ptr @Abc_ObjFanin0(ptr noundef %0) #3 {
  %2 = alloca ptr, align 8
  store ptr %0, ptr %2, align 8, !tbaa !27
  %3 = load ptr, ptr %2, align 8, !tbaa !27
  %4 = getelementptr inbounds nuw %struct.Abc_Obj_t_, ptr %3, i32 0, i32 0
  %5 = load ptr, ptr %4, align 8, !tbaa !63
  %6 = getelementptr inbounds nuw %struct.Abc_Ntk_t_, ptr %5, i32 0, i32 5
  %7 = load ptr, ptr %6, align 8, !tbaa !26
  %8 = getelementptr inbounds nuw %struct.Vec_Ptr_t_, ptr %7, i32 0, i32 2
  %9 = load ptr, ptr %8, align 8, !tbaa !61
  %10 = load ptr, ptr %2, align 8, !tbaa !27
  %11 = getelementptr inbounds nuw %struct.Abc_Obj_t_, ptr %10, i32 0, i32 4
  %12 = getelementptr inbounds nuw %struct.Vec_Int_t_, ptr %11, i32 0, i32 2
  %13 = load ptr, ptr %12, align 8, !tbaa !64
  %14 = getelementptr inbounds i32, ptr %13, i64 0
  %15 = load i32, ptr %14, align 4, !tbaa !8
  %16 = sext i32 %15 to i64
  %17 = getelementptr inbounds ptr, ptr %9, i64 %16
  %18 = load ptr, ptr %17, align 8, !tbaa !60
  ret ptr %18
}

; Function Attrs: inlinehint nounwind uwtable
define internal ptr @Abc_NtkCo(ptr noundef %0, i32 noundef %1) #3 {
  %3 = alloca ptr, align 8
  %4 = alloca i32, align 4
  store ptr %0, ptr %3, align 8, !tbaa !3
  store i32 %1, ptr %4, align 4, !tbaa !8
  %5 = load ptr, ptr %3, align 8, !tbaa !3
  %6 = getelementptr inbounds nuw %struct.Abc_Ntk_t_, ptr %5, i32 0, i32 9
  %7 = load ptr, ptr %6, align 8, !tbaa !65
  %8 = load i32, ptr %4, align 4, !tbaa !8
  %9 = call ptr @Vec_PtrEntry(ptr noundef %7, i32 noundef %8)
  ret ptr %9
}

; Function Attrs: inlinehint nounwind uwtable
define internal i32 @Abc_NtkCoNum(ptr noundef %0) #3 {
  %2 = alloca ptr, align 8
  store ptr %0, ptr %2, align 8, !tbaa !3
  %3 = load ptr, ptr %2, align 8, !tbaa !3
  %4 = getelementptr inbounds nuw %struct.Abc_Ntk_t_, ptr %3, i32 0, i32 9
  %5 = load ptr, ptr %4, align 8, !tbaa !65
  %6 = call i32 @Vec_PtrSize(ptr noundef %5)
  ret i32 %6
}

; Function Attrs: inlinehint nounwind uwtable
define internal i32 @Abc_ObjFanoutNum(ptr noundef %0) #3 {
  %2 = alloca ptr, align 8
  store ptr %0, ptr %2, align 8, !tbaa !27
  %3 = load ptr, ptr %2, align 8, !tbaa !27
  %4 = getelementptr inbounds nuw %struct.Abc_Obj_t_, ptr %3, i32 0, i32 5
  %5 = getelementptr inbounds nuw %struct.Vec_Int_t_, ptr %4, i32 0, i32 1
  %6 = load i32, ptr %5, align 4, !tbaa !40
  ret i32 %6
}

; Function Attrs: inlinehint nounwind uwtable
define internal i32 @Abc_ObjIsNode(ptr noundef %0) #3 {
  %2 = alloca ptr, align 8
  store ptr %0, ptr %2, align 8, !tbaa !27
  %3 = load ptr, ptr %2, align 8, !tbaa !27
  %4 = getelementptr inbounds nuw %struct.Abc_Obj_t_, ptr %3, i32 0, i32 3
  %5 = load i32, ptr %4, align 4
  %6 = and i32 %5, 15
  %7 = icmp eq i32 %6, 7
  %8 = zext i1 %7 to i32
  ret i32 %8
}

; Function Attrs: inlinehint nounwind uwtable
define internal ptr @Abc_NtkObj(ptr noundef %0, i32 noundef %1) #3 {
  %3 = alloca ptr, align 8
  %4 = alloca i32, align 4
  store ptr %0, ptr %3, align 8, !tbaa !3
  store i32 %1, ptr %4, align 4, !tbaa !8
  %5 = load ptr, ptr %3, align 8, !tbaa !3
  %6 = getelementptr inbounds nuw %struct.Abc_Ntk_t_, ptr %5, i32 0, i32 5
  %7 = load ptr, ptr %6, align 8, !tbaa !26
  %8 = load i32, ptr %4, align 4, !tbaa !8
  %9 = call ptr @Vec_PtrEntry(ptr noundef %7, i32 noundef %8)
  ret ptr %9
}

; Function Attrs: inlinehint nounwind uwtable
define internal i32 @Vec_PtrSize(ptr noundef %0) #3 {
  %2 = alloca ptr, align 8
  store ptr %0, ptr %2, align 8, !tbaa !44
  %3 = load ptr, ptr %2, align 8, !tbaa !44
  %4 = getelementptr inbounds nuw %struct.Vec_Ptr_t_, ptr %3, i32 0, i32 1
  %5 = load i32, ptr %4, align 4, !tbaa !58
  ret i32 %5
}

; Function Attrs: inlinehint nounwind uwtable
define internal ptr @Vec_PtrAlloc(i32 noundef %0) #3 {
  %2 = alloca i32, align 4
  %3 = alloca ptr, align 8
  store i32 %0, ptr %2, align 4, !tbaa !8
  call void @llvm.lifetime.start.p0(i64 8, ptr %3) #7
  %4 = call noalias ptr @malloc(i64 noundef 16) #8
  store ptr %4, ptr %3, align 8, !tbaa !44
  %5 = load i32, ptr %2, align 4, !tbaa !8
  %6 = icmp sgt i32 %5, 0
  br i1 %6, label %7, label %11

7:                                                ; preds = %1
  %8 = load i32, ptr %2, align 4, !tbaa !8
  %9 = icmp slt i32 %8, 8
  br i1 %9, label %10, label %11

10:                                               ; preds = %7
  store i32 8, ptr %2, align 4, !tbaa !8
  br label %11

11:                                               ; preds = %10, %7, %1
  %12 = load ptr, ptr %3, align 8, !tbaa !44
  %13 = getelementptr inbounds nuw %struct.Vec_Ptr_t_, ptr %12, i32 0, i32 1
  store i32 0, ptr %13, align 4, !tbaa !58
  %14 = load i32, ptr %2, align 4, !tbaa !8
  %15 = load ptr, ptr %3, align 8, !tbaa !44
  %16 = getelementptr inbounds nuw %struct.Vec_Ptr_t_, ptr %15, i32 0, i32 0
  store i32 %14, ptr %16, align 8, !tbaa !68
  %17 = load ptr, ptr %3, align 8, !tbaa !44
  %18 = getelementptr inbounds nuw %struct.Vec_Ptr_t_, ptr %17, i32 0, i32 0
  %19 = load i32, ptr %18, align 8, !tbaa !68
  %20 = icmp ne i32 %19, 0
  br i1 %20, label %21, label %28

21:                                               ; preds = %11
  %22 = load ptr, ptr %3, align 8, !tbaa !44
  %23 = getelementptr inbounds nuw %struct.Vec_Ptr_t_, ptr %22, i32 0, i32 0
  %24 = load i32, ptr %23, align 8, !tbaa !68
  %25 = sext i32 %24 to i64
  %26 = mul i64 8, %25
  %27 = call noalias ptr @malloc(i64 noundef %26) #8
  br label %29

28:                                               ; preds = %11
  br label %29

29:                                               ; preds = %28, %21
  %30 = phi ptr [ %27, %21 ], [ null, %28 ]
  %31 = load ptr, ptr %3, align 8, !tbaa !44
  %32 = getelementptr inbounds nuw %struct.Vec_Ptr_t_, ptr %31, i32 0, i32 2
  store ptr %30, ptr %32, align 8, !tbaa !61
  %33 = load ptr, ptr %3, align 8, !tbaa !44
  call void @llvm.lifetime.end.p0(i64 8, ptr %3) #7
  ret ptr %33
}

; Function Attrs: nounwind uwtable
define internal void @Abc_NtkMultiSetBounds(ptr noundef %0, i32 noundef %1, i32 noundef %2) #0 {
  %4 = alloca ptr, align 8
  %5 = alloca i32, align 4
  %6 = alloca i32, align 4
  %7 = alloca ptr, align 8
  %8 = alloca ptr, align 8
  %9 = alloca i32, align 4
  %10 = alloca i32, align 4
  %11 = alloca i32, align 4
  store ptr %0, ptr %4, align 8, !tbaa !3
  store i32 %1, ptr %5, align 4, !tbaa !8
  store i32 %2, ptr %6, align 4, !tbaa !8
  call void @llvm.lifetime.start.p0(i64 8, ptr %7) #7
  %12 = call ptr @Vec_PtrAlloc(i32 noundef 10)
  store ptr %12, ptr %7, align 8, !tbaa !44
  call void @llvm.lifetime.start.p0(i64 8, ptr %8) #7
  call void @llvm.lifetime.start.p0(i64 4, ptr %9) #7
  call void @llvm.lifetime.start.p0(i64 4, ptr %10) #7
  call void @llvm.lifetime.start.p0(i64 4, ptr %11) #7
  store i32 0, ptr %9, align 4, !tbaa !8
  br label %13

13:                                               ; preds = %32, %3
  %14 = load i32, ptr %9, align 4, !tbaa !8
  %15 = load ptr, ptr %4, align 8, !tbaa !3
  %16 = getelementptr inbounds nuw %struct.Abc_Ntk_t_, ptr %15, i32 0, i32 5
  %17 = load ptr, ptr %16, align 8, !tbaa !26
  %18 = call i32 @Vec_PtrSize(ptr noundef %17)
  %19 = icmp slt i32 %14, %18
  br i1 %19, label %20, label %24

20:                                               ; preds = %13
  %21 = load ptr, ptr %4, align 8, !tbaa !3
  %22 = load i32, ptr %9, align 4, !tbaa !8
  %23 = call ptr @Abc_NtkObj(ptr noundef %21, i32 noundef %22)
  store ptr %23, ptr %8, align 8, !tbaa !27
  br label %24

24:                                               ; preds = %20, %13
  %25 = phi i1 [ false, %13 ], [ true, %20 ]
  br i1 %25, label %26, label %35

26:                                               ; preds = %24
  %27 = load ptr, ptr %8, align 8, !tbaa !27
  %28 = icmp eq ptr %27, null
  br i1 %28, label %29, label %30

29:                                               ; preds = %26
  br label %31

30:                                               ; preds = %26
  br label %31

31:                                               ; preds = %30, %29
  br label %32

32:                                               ; preds = %31
  %33 = load i32, ptr %9, align 4, !tbaa !8
  %34 = add nsw i32 %33, 1
  store i32 %34, ptr %9, align 4, !tbaa !8
  br label %13, !llvm.loop !45

35:                                               ; preds = %24
  store i32 0, ptr %9, align 4, !tbaa !8
  br label %36

36:                                               ; preds = %76, %35
  %37 = load i32, ptr %9, align 4, !tbaa !8
  %38 = load ptr, ptr %4, align 8, !tbaa !3
  %39 = getelementptr inbounds nuw %struct.Abc_Ntk_t_, ptr %38, i32 0, i32 5
  %40 = load ptr, ptr %39, align 8, !tbaa !26
  %41 = call i32 @Vec_PtrSize(ptr noundef %40)
  %42 = icmp slt i32 %37, %41
  br i1 %42, label %43, label %47

43:                                               ; preds = %36
  %44 = load ptr, ptr %4, align 8, !tbaa !3
  %45 = load i32, ptr %9, align 4, !tbaa !8
  %46 = call ptr @Abc_NtkObj(ptr noundef %44, i32 noundef %45)
  store ptr %46, ptr %8, align 8, !tbaa !27
  br label %47

47:                                               ; preds = %43, %36
  %48 = phi i1 [ false, %36 ], [ true, %43 ]
  br i1 %48, label %49, label %79

49:                                               ; preds = %47
  %50 = load ptr, ptr %8, align 8, !tbaa !27
  %51 = icmp eq ptr %50, null
  br i1 %51, label %56, label %52

52:                                               ; preds = %49
  %53 = load ptr, ptr %8, align 8, !tbaa !27
  %54 = call i32 @Abc_ObjIsNode(ptr noundef %53)
  %55 = icmp ne i32 %54, 0
  br i1 %55, label %57, label %56

56:                                               ; preds = %52, %49
  br label %75

57:                                               ; preds = %52
  %58 = load ptr, ptr %8, align 8, !tbaa !27
  %59 = call i32 @Abc_ObjFanoutNum(ptr noundef %58)
  store i32 %59, ptr %10, align 4, !tbaa !8
  %60 = load ptr, ptr %8, align 8, !tbaa !27
  %61 = call i32 @Abc_NodeMffcSize(ptr noundef %60)
  store i32 %61, ptr %11, align 4, !tbaa !8
  %62 = load i32, ptr %10, align 4, !tbaa !8
  %63 = sub nsw i32 %62, 1
  %64 = load i32, ptr %11, align 4, !tbaa !8
  %65 = mul nsw i32 %63, %64
  %66 = load i32, ptr %5, align 4, !tbaa !8
  %67 = icmp sgt i32 %65, %66
  br i1 %67, label %68, label %74

68:                                               ; preds = %57
  %69 = load ptr, ptr %8, align 8, !tbaa !27
  %70 = getelementptr inbounds nuw %struct.Abc_Obj_t_, ptr %69, i32 0, i32 3
  %71 = load i32, ptr %70, align 4
  %72 = and i32 %71, -17
  %73 = or i32 %72, 16
  store i32 %73, ptr %70, align 4
  br label %74

74:                                               ; preds = %68, %57
  br label %75

75:                                               ; preds = %74, %56
  br label %76

76:                                               ; preds = %75
  %77 = load i32, ptr %9, align 4, !tbaa !8
  %78 = add nsw i32 %77, 1
  store i32 %78, ptr %9, align 4, !tbaa !8
  br label %36, !llvm.loop !46

79:                                               ; preds = %47
  store i32 0, ptr %9, align 4, !tbaa !8
  br label %80

80:                                               ; preds = %98, %79
  %81 = load i32, ptr %9, align 4, !tbaa !8
  %82 = load ptr, ptr %4, align 8, !tbaa !3
  %83 = call i32 @Abc_NtkCoNum(ptr noundef %82)
  %84 = icmp slt i32 %81, %83
  br i1 %84, label %85, label %89

85:                                               ; preds = %80
  %86 = load ptr, ptr %4, align 8, !tbaa !3
  %87 = load i32, ptr %9, align 4, !tbaa !8
  %88 = call ptr @Abc_NtkCo(ptr noundef %86, i32 noundef %87)
  store ptr %88, ptr %8, align 8, !tbaa !27
  br label %89

89:                                               ; preds = %85, %80
  %90 = phi i1 [ false, %80 ], [ true, %85 ]
  br i1 %90, label %91, label %101

91:                                               ; preds = %89
  %92 = load ptr, ptr %8, align 8, !tbaa !27
  %93 = call ptr @Abc_ObjFanin0(ptr noundef %92)
  %94 = getelementptr inbounds nuw %struct.Abc_Obj_t_, ptr %93, i32 0, i32 3
  %95 = load i32, ptr %94, align 4
  %96 = and i32 %95, -17
  %97 = or i32 %96, 16
  store i32 %97, ptr %94, align 4
  br label %98

98:                                               ; preds = %91
  %99 = load i32, ptr %9, align 4, !tbaa !8
  %100 = add nsw i32 %99, 1
  store i32 %100, ptr %9, align 4, !tbaa !8
  br label %80, !llvm.loop !47

101:                                              ; preds = %89
  store i32 0, ptr %9, align 4, !tbaa !8
  br label %102

102:                                              ; preds = %141, %101
  %103 = load i32, ptr %9, align 4, !tbaa !8
  %104 = load ptr, ptr %4, align 8, !tbaa !3
  %105 = getelementptr inbounds nuw %struct.Abc_Ntk_t_, ptr %104, i32 0, i32 5
  %106 = load ptr, ptr %105, align 8, !tbaa !26
  %107 = call i32 @Vec_PtrSize(ptr noundef %106)
  %108 = icmp slt i32 %103, %107
  br i1 %108, label %109, label %113

109:                                              ; preds = %102
  %110 = load ptr, ptr %4, align 8, !tbaa !3
  %111 = load i32, ptr %9, align 4, !tbaa !8
  %112 = call ptr @Abc_NtkObj(ptr noundef %110, i32 noundef %111)
  store ptr %112, ptr %8, align 8, !tbaa !27
  br label %113

113:                                              ; preds = %109, %102
  %114 = phi i1 [ false, %102 ], [ true, %109 ]
  br i1 %114, label %115, label %144

115:                                              ; preds = %113
  %116 = load ptr, ptr %8, align 8, !tbaa !27
  %117 = icmp eq ptr %116, null
  br i1 %117, label %122, label %118

118:                                              ; preds = %115
  %119 = load ptr, ptr %8, align 8, !tbaa !27
  %120 = call i32 @Abc_ObjIsNode(ptr noundef %119)
  %121 = icmp ne i32 %120, 0
  br i1 %121, label %123, label %122

122:                                              ; preds = %118, %115
  br label %140

123:                                              ; preds = %118
  %124 = load ptr, ptr %8, align 8, !tbaa !27
  %125 = getelementptr inbounds nuw %struct.Abc_Obj_t_, ptr %124, i32 0, i32 3
  %126 = load i32, ptr %125, align 4
  %127 = lshr i32 %126, 4
  %128 = and i32 %127, 1
  %129 = icmp eq i32 %128, 0
  br i1 %129, label %130, label %131

130:                                              ; preds = %123
  br label %141

131:                                              ; preds = %123
  br label %132

132:                                              ; preds = %138, %131
  %133 = load ptr, ptr %8, align 8, !tbaa !27
  %134 = load ptr, ptr %7, align 8, !tbaa !44
  %135 = load i32, ptr %6, align 4, !tbaa !8
  %136 = call i32 @Abc_NtkMultiLimit(ptr noundef %133, ptr noundef %134, i32 noundef %135)
  %137 = icmp ne i32 %136, 0
  br i1 %137, label %138, label %139

138:                                              ; preds = %132
  br label %132, !llvm.loop !48

139:                                              ; preds = %132
  br label %140

140:                                              ; preds = %139, %122
  br label %141

141:                                              ; preds = %140, %130
  %142 = load i32, ptr %9, align 4, !tbaa !8
  %143 = add nsw i32 %142, 1
  store i32 %143, ptr %9, align 4, !tbaa !8
  br label %102, !llvm.loop !49

144:                                              ; preds = %113
  %145 = load ptr, ptr %7, align 8, !tbaa !44
  call void @Vec_PtrFree(ptr noundef %145)
  call void @llvm.lifetime.end.p0(i64 4, ptr %11) #7
  call void @llvm.lifetime.end.p0(i64 4, ptr %10) #7
  call void @llvm.lifetime.end.p0(i64 4, ptr %9) #7
  call void @llvm.lifetime.end.p0(i64 8, ptr %8) #7
  call void @llvm.lifetime.end.p0(i64 8, ptr %7) #7
  ret void
}