; Function Attrs: nounwind uwtable
define internal fastcc void @Abc_NtkMultiSetBounds(ptr noundef readonly captures(none) %0, i32 noundef %1, i32 noundef %2) unnamed_addr #0 {
.critedge.preheader:
  %3 = tail call noalias dereferenceable_or_null(16) ptr @malloc(i64 noundef 16) #7
  %4 = getelementptr inbounds nuw i8, ptr %3, i64 4
  store i32 0, ptr %4, align 4, !tbaa !24
  store i32 10, ptr %3, align 8, !tbaa !51
  %5 = tail call noalias dereferenceable_or_null(80) ptr @malloc(i64 noundef 80) #7
  %6 = getelementptr inbounds nuw i8, ptr %3, i64 8
  store ptr %5, ptr %6, align 8, !tbaa !27
  %7 = getelementptr inbounds nuw i8, ptr %0, i64 32
  %8 = load ptr, ptr %7, align 8, !tbaa !3
  %9 = getelementptr i8, ptr %8, i64 4
  %.val4659 = load i32, ptr %9, align 4, !tbaa !24
  %10 = icmp sgt i32 %.val4659, 0
  br i1 %10, label %.lr.ph, label %.critedge2.preheader

.critedge2.preheader:                             ; preds = %.critedge, %.critedge.preheader
  %11 = phi ptr [ %8, %.critedge.preheader ], [ %32, %.critedge ]
  %12 = getelementptr i8, ptr %0, i64 64
  %.val5661 = load ptr, ptr %12, align 8, !tbaa !26
  %13 = getelementptr i8, ptr %.val5661, i64 4
  %.val56.val62 = load i32, ptr %13, align 4, !tbaa !24
  %14 = icmp sgt i32 %.val56.val62, 0
  br i1 %14, label %.critedge2, label %.critedge4.preheader

.lr.ph:                                           ; preds = %.critedge.preheader, %.critedge
  %indvars.iv = phi i64 [ %indvars.iv.next, %.critedge ], [ 0, %.critedge.preheader ]
  %15 = phi ptr [ %32, %.critedge ], [ %8, %.critedge.preheader ]
  %16 = getelementptr i8, ptr %15, i64 8
  %.val49.val = load ptr, ptr %16, align 8, !tbaa !27
  %17 = getelementptr inbounds nuw ptr, ptr %.val49.val, i64 %indvars.iv
  %18 = load ptr, ptr %17, align 8, !tbaa !28
  %19 = icmp eq ptr %18, null
  br i1 %19, label %.critedge, label %20

20:                                               ; preds = %.lr.ph
  %21 = getelementptr i8, ptr %18, i64 20
  %.val51 = load i32, ptr %21, align 4
  %22 = and i32 %.val51, 15
  %.not = icmp eq i32 %22, 7
  br i1 %.not, label %23, label %.critedge

23:                                               ; preds = %20
  %24 = getelementptr i8, ptr %18, i64 44
  %.val53 = load i32, ptr %24, align 4, !tbaa !29
  %25 = tail call i32 @Abc_NodeMffcSize(ptr noundef nonnull %18) #6
  %26 = add nsw i32 %.val53, -1
  %27 = mul nsw i32 %26, %25
  %28 = icmp sgt i32 %27, %1
  br i1 %28, label %29, label %.critedge

29:                                               ; preds = %23
  %30 = load i32, ptr %21, align 4
  %31 = or i32 %30, 16
  store i32 %31, ptr %21, align 4
  br label %.critedge

.critedge:                                        ; preds = %20, %.lr.ph, %29, %23
  %indvars.iv.next = add nuw nsw i64 %indvars.iv, 1
  %32 = load ptr, ptr %7, align 8, !tbaa !3
  %33 = getelementptr i8, ptr %32, i64 4
  %.val46 = load i32, ptr %33, align 4, !tbaa !24
  %34 = sext i32 %.val46 to i64
  %35 = icmp slt i64 %indvars.iv.next, %34
  br i1 %35, label %.lr.ph, label %.critedge2.preheader, !llvm.loop !52

.critedge4.preheader.loopexit:                    ; preds = %.critedge2
  %.pre = load ptr, ptr %7, align 8, !tbaa !3
  br label %.critedge4.preheader

.critedge4.preheader:                             ; preds = %.critedge4.preheader.loopexit, %.critedge2.preheader
  %36 = phi ptr [ %.pre, %.critedge4.preheader.loopexit ], [ %11, %.critedge2.preheader ]
  %37 = getelementptr i8, ptr %36, i64 4
  %.val4766 = load i32, ptr %37, align 4, !tbaa !24
  %38 = icmp sgt i32 %.val4766, 0
  br i1 %38, label %.lr.ph68, label %.critedge6

.critedge2:                                       ; preds = %.critedge2.preheader, %.critedge2
  %indvars.iv71 = phi i64 [ %indvars.iv.next72, %.critedge2 ], [ 0, %.critedge2.preheader ]
  %.val5664 = phi ptr [ %.val56, %.critedge2 ], [ %.val5661, %.critedge2.preheader ]
  %39 = getelementptr i8, ptr %.val5664, i64 8
  %.val57.val = load ptr, ptr %39, align 8, !tbaa !27
  %40 = getelementptr inbounds nuw ptr, ptr %.val57.val, i64 %indvars.iv71
  %41 = load ptr, ptr %40, align 8, !tbaa !28
  %.val54 = load ptr, ptr %41, align 8, !tbaa !32
  %42 = getelementptr i8, ptr %41, i64 32
  %.val55 = load ptr, ptr %42, align 8, !tbaa !33
  %43 = getelementptr i8, ptr %.val54, i64 32
  %.val54.val = load ptr, ptr %43, align 8, !tbaa !3
  %.val55.val = load i32, ptr %.val55, align 4, !tbaa !34
  %44 = getelementptr i8, ptr %.val54.val, i64 8
  %.val54.val.val = load ptr, ptr %44, align 8, !tbaa !27
  %45 = sext i32 %.val55.val to i64
  %46 = getelementptr inbounds ptr, ptr %.val54.val.val, i64 %45
  %47 = load ptr, ptr %46, align 8, !tbaa !28
  %48 = getelementptr inbounds nuw i8, ptr %47, i64 20
  %49 = load i32, ptr %48, align 4
  %50 = or i32 %49, 16
  store i32 %50, ptr %48, align 4
  %indvars.iv.next72 = add nuw nsw i64 %indvars.iv71, 1
  %.val56 = load ptr, ptr %12, align 8, !tbaa !26
  %51 = getelementptr i8, ptr %.val56, i64 4
  %.val56.val = load i32, ptr %51, align 4, !tbaa !24
  %52 = sext i32 %.val56.val to i64
  %53 = icmp slt i64 %indvars.iv.next72, %52
  br i1 %53, label %.critedge2, label %.critedge4.preheader.loopexit, !llvm.loop !53

.lr.ph68:                                         ; preds = %.critedge4.preheader, %.critedge4
  %54 = phi ptr [ %63, %.critedge4 ], [ %36, %.critedge4.preheader ]
  %indvars.iv74 = phi i64 [ %indvars.iv.next75, %.critedge4 ], [ 0, %.critedge4.preheader ]
  %55 = getelementptr i8, ptr %54, i64 8
  %.val50.val = load ptr, ptr %55, align 8, !tbaa !27
  %56 = getelementptr inbounds nuw ptr, ptr %.val50.val, i64 %indvars.iv74
  %57 = load ptr, ptr %56, align 8, !tbaa !28
  %58 = icmp eq ptr %57, null
  br i1 %58, label %.critedge4, label %59

59:                                               ; preds = %.lr.ph68
  %60 = getelementptr i8, ptr %57, i64 20
  %.val52 = load i32, ptr %60, align 4
  %61 = and i32 %.val52, 31
  %or.cond.not = icmp eq i32 %61, 23
  br i1 %or.cond.not, label %.preheader, label %.critedge4

.preheader:                                       ; preds = %59, %.preheader
  store i32 0, ptr %4, align 4, !tbaa !24
  %62 = tail call range(i32 0, 2) i32 @Abc_NtkMultiLimit_rec(ptr noundef nonnull %57, ptr noundef nonnull %3, i32 noundef %2, i32 noundef 1, i32 noundef 1)
  %.not44 = icmp eq i32 %62, 0
  br i1 %.not44, label %.critedge4.loopexit, label %.preheader, !llvm.loop !54

.critedge4.loopexit:                              ; preds = %.preheader
  %.pre77 = load ptr, ptr %7, align 8, !tbaa !3
  br label %.critedge4

.critedge4:                                       ; preds = %.critedge4.loopexit, %59, %.lr.ph68
  %63 = phi ptr [ %.pre77, %.critedge4.loopexit ], [ %54, %59 ], [ %54, %.lr.ph68 ]
  %indvars.iv.next75 = add nuw nsw i64 %indvars.iv74, 1
  %64 = getelementptr i8, ptr %63, i64 4
  %.val47 = load i32, ptr %64, align 4, !tbaa !24
  %65 = sext i32 %.val47 to i64
  %66 = icmp slt i64 %indvars.iv.next75, %65
  br i1 %66, label %.lr.ph68, label %.critedge6.loopexit, !llvm.loop !55

.critedge6.loopexit:                              ; preds = %.critedge4
  %.pre78 = load ptr, ptr %6, align 8, !tbaa !27
  br label %.critedge6

.critedge6:                                       ; preds = %.critedge6.loopexit, %.critedge4.preheader
  %67 = phi ptr [ %.pre78, %.critedge6.loopexit ], [ %5, %.critedge4.preheader ]
  %.not.i = icmp eq ptr %67, null
  br i1 %.not.i, label %Vec_PtrFree.exit, label %68

68:                                               ; preds = %.critedge6
  tail call void @free(ptr noundef nonnull %67) #6
  br label %Vec_PtrFree.exit

Vec_PtrFree.exit:                                 ; preds = %.critedge6, %68
  tail call void @free(ptr noundef nonnull %3) #6
  ret void
}